; Function Attrs: mustprogress uwtable
define void @_ZN7testing8internal7PrintToEoPSo(i64 noundef %0, i64 noundef %1, ptr noundef %2) local_unnamed_addr #3 {
  %4 = alloca [40 x i8], align 16
  %.sroa.2.0.insert.ext = zext i64 %1 to i128
  %.sroa.2.0.insert.shift = shl nuw i128 %.sroa.2.0.insert.ext, 64
  %.sroa.0.0.insert.ext = zext i64 %0 to i128
  %.sroa.0.0.insert.insert = or disjoint i128 %.sroa.2.0.insert.shift, %.sroa.0.0.insert.ext
  %5 = icmp eq i128 %.sroa.0.0.insert.insert, 0
  br i1 %5, label %6, label %8

6:                                                ; preds = %3
  %7 = tail call noundef nonnull align 8 dereferenceable(8) ptr @_ZSt16__ostream_insertIcSt11char_traitsIcEERSt13basic_ostreamIT_T0_ES6_PKS3_l(ptr noundef nonnull align 8 dereferenceable(8) %2, ptr noundef nonnull @.str.76, i64 noundef 1)
  br label %29

8:                                                ; preds = %3
  call void @llvm.lifetime.start.p0(i64 40, ptr nonnull %4) #57
  %9 = getelementptr inbounds nuw i8, ptr %4, i64 39
  store i8 0, ptr %9, align 1, !tbaa !27
  %10 = or i64 %1, %0
  %.not = icmp eq i64 %10, 0
  br i1 %.not, label %._crit_edge, label %.lr.ph

.lr.ph:                                           ; preds = %8, %.lr.ph
  %.024 = phi ptr [ %23, %.lr.ph ], [ %9, %8 ]
  %.01823 = phi i64 [ %12, %.lr.ph ], [ %1, %8 ]
  %.01922 = phi i64 [ %20, %.lr.ph ], [ %0, %8 ]
  %11 = urem i64 %.01823, 10
  %12 = udiv i64 %.01823, 10
  %13 = mul nuw nsw i64 %11, 6
  %14 = urem i64 %.01922, 10
  %15 = add nuw nsw i64 %13, %14
  %16 = udiv i64 %.01922, 10
  %17 = mul nuw i64 %11, 1844674407370955161
  %18 = add nuw i64 %17, %16
  %.lhs.trunc = trunc nuw nsw i64 %15 to i8
  %19 = udiv i8 %.lhs.trunc, 10
  %.zext = zext nneg i8 %19 to i64
  %20 = add i64 %18, %.zext
  %21 = urem i8 %.lhs.trunc, 10
  %22 = or disjoint i8 %21, 48
  %23 = getelementptr inbounds i8, ptr %.024, i64 -1
  store i8 %22, ptr %23, align 1, !tbaa !27
  %24 = icmp ugt i64 %.01823, 9
  %25 = icmp ne i64 %20, 0
  %26 = select i1 %24, i1 true, i1 %25
  br i1 %26, label %.lr.ph, label %._crit_edge, !llvm.loop !572

._crit_edge:                                      ; preds = %.lr.ph, %8
  %.0.lcssa = phi ptr [ %9, %8 ], [ %23, %.lr.ph ]
  %27 = call noundef i64 @strlen(ptr noundef nonnull dereferenceable(1) %.0.lcssa) #57
  %28 = call noundef nonnull align 8 dereferenceable(8) ptr @_ZSt16__ostream_insertIcSt11char_traitsIcEERSt13basic_ostreamIT_T0_ES6_PKS3_l(ptr noundef nonnull align 8 dereferenceable(8) %2, ptr noundef nonnull %.0.lcssa, i64 noundef %27)
  call void @llvm.lifetime.end.p0(i64 40, ptr nonnull %4) #57
  br label %29

29:                                               ; preds = %._crit_edge, %6
  ret void
}